target datalayout = "e-m:e-p270:32:32-p271:32:32-p272:64:64-i64:64-i128:128-f80:128-n8:16:32:64-S128"
target triple = "x86_64-pc-linux-gnu"

%class.dtQueryFilter = type { [64 x float], i16, i16 }
%class.dtNavMeshQuery = type { ptr, %"struct.dtNavMeshQuery::dtQueryData", ptr, ptr, ptr }
%"struct.dtNavMeshQuery::dtQueryData" = type { i32, ptr, float, i32, i32, [3 x float], [3 x float], ptr, i32, float }
%struct.dtPoly = type { i32, [6 x i16], [6 x i16], i16, i8, i8 }

; Function Attrs: mustprogress nounwind uwtable
define linkonce_odr noundef zeroext i1 @_ZNK13dtQueryFilter10passFilterEjPK10dtMeshTilePK6dtPoly(ptr noundef nonnull align 4 dereferenceable(260) %0, i32 noundef %1, ptr noundef %2, ptr noundef %3) #0 comdat align 2 {
  %5 = alloca ptr, align 8
  %6 = alloca i32, align 4
  %7 = alloca ptr, align 8
  %8 = alloca ptr, align 8
  store ptr %0, ptr %5, align 8
  store i32 %1, ptr %6, align 4
  store ptr %2, ptr %7, align 8
  store ptr %3, ptr %8, align 8
  %9 = load ptr, ptr %5, align 8
  %10 = load ptr, ptr %8, align 8
  %11 = getelementptr inbounds %struct.dtPoly, ptr %10, i32 0, i32 3
  %12 = load i16, ptr %11, align 4
  %13 = zext i16 %12 to i32
  %14 = getelementptr inbounds %class.dtQueryFilter, ptr %9, i32 0, i32 1
  %15 = load i16, ptr %14, align 4
  %16 = zext i16 %15 to i32
  %17 = and i32 %13, %16
  %18 = icmp ne i32 %17, 0
  br i1 %18, label %19, label %29

19:                                               ; preds = %4
  %20 = load ptr, ptr %8, align 8
  %21 = getelementptr inbounds %struct.dtPoly, ptr %20, i32 0, i32 3
  %22 = load i16, ptr %21, align 4
  %23 = zext i16 %22 to i32
  %24 = getelementptr inbounds %class.dtQueryFilter, ptr %9, i32 0, i32 2
  %25 = load i16, ptr %24, align 2
  %26 = zext i16 %25 to i32
  %27 = and i32 %23, %26
  %28 = icmp eq i32 %27, 0
  br label %29

29:                                               ; preds = %19, %4
  %30 = phi i1 [ false, %4 ], [ %28, %19 ]
  ret i1 %30
}

; Function Attrs: mustprogress nounwind uwtable
define linkonce_odr noundef zeroext i1 @_Z14dtStatusFailedj(i32 noundef %0) #0 comdat {
  %2 = alloca i32, align 4
  store i32 %0, ptr %2, align 4
  %3 = load i32, ptr %2, align 4
  %4 = and i32 %3, -2147483648
  %5 = icmp ne i32 %4, 0
  ret i1 %5
}

; Function Attrs: mustprogress uwtable
define noundef zeroext i1 @_ZNK14dtNavMeshQuery14isValidPolyRefEjPK13dtQueryFilter(ptr noundef nonnull align 8 dereferenceable(104) %0, i32 noundef %1, ptr noundef %2) #1 align 2 {
  %4 = alloca i1, align 1
  %5 = alloca ptr, align 8
  %6 = alloca i32, align 4
  %7 = alloca ptr, align 8
  %8 = alloca ptr, align 8
  %9 = alloca ptr, align 8
  %10 = alloca i32, align 4
  store ptr %0, ptr %5, align 8
  store i32 %1, ptr %6, align 4
  store ptr %2, ptr %7, align 8
  %11 = load ptr, ptr %5, align 8
  store ptr null, ptr %8, align 8
  store ptr null, ptr %9, align 8
  %12 = getelementptr inbounds %class.dtNavMeshQuery, ptr %11, i32 0, i32 0
  %13 = load ptr, ptr %12, align 8
  %14 = load i32, ptr %6, align 4
  %15 = call noundef i32 @_ZNK9dtNavMesh19getTileAndPolyByRefEjPPK10dtMeshTilePPK6dtPoly(ptr noundef nonnull align 8 dereferenceable(100) %13, i32 noundef %14, ptr noundef %8, ptr noundef %9)
  store i32 %15, ptr %10, align 4
  %16 = load i32, ptr %10, align 4
  %17 = call noundef zeroext i1 @_Z14dtStatusFailedj(i32 noundef %16)
  br i1 %17, label %18, label %19

18:                                               ; preds = %3
  store i1 false, ptr %4, align 1
  br label %27

19:                                               ; preds = %3
  %20 = load ptr, ptr %7, align 8
  %21 = load i32, ptr %6, align 4
  %22 = load ptr, ptr %8, align 8
  %23 = load ptr, ptr %9, align 8
  %24 = call noundef zeroext i1 @_ZNK13dtQueryFilter10passFilterEjPK10dtMeshTilePK6dtPoly(ptr noundef nonnull align 4 dereferenceable(260) %20, i32 noundef %21, ptr noundef %22, ptr noundef %23)
  br i1 %24, label %26, label %25

25:                                               ; preds = %19
  store i1 false, ptr %4, align 1
  br label %27

26:                                               ; preds = %19
  store i1 true, ptr %4, align 1
  br label %27

27:                                               ; preds = %26, %25, %18
  %28 = load i1, ptr %4, align 1
  ret i1 %28
}