; Function Attrs: mustprogress uwtable
define noundef zeroext i1 @_ZNK14dtNavMeshQuery14isValidPolyRefEjPK13dtQueryFilter(ptr nocapture noundef nonnull readonly align 8 dereferenceable(104) %0, i32 noundef %1, ptr nocapture noundef readonly %2) local_unnamed_addr #1 align 2 {
  %4 = alloca ptr, align 8
  %5 = alloca ptr, align 8
  store ptr null, ptr %4, align 8
  store ptr null, ptr %5, align 8
  %6 = load ptr, ptr %0, align 8
  %7 = call noundef i32 @_ZNK9dtNavMesh19getTileAndPolyByRefEjPPK10dtMeshTilePPK6dtPoly(ptr noundef nonnull align 8 dereferenceable(100) %6, i32 noundef %1, ptr noundef nonnull %4, ptr noundef nonnull %5)
  %8 = icmp slt i32 %7, 0
  br i1 %8, label %21, label %9

9:                                                ; preds = %3
  %10 = load ptr, ptr %5, align 8
  %11 = getelementptr inbounds i8, ptr %10, i64 28
  %12 = load i16, ptr %11, align 4
  %13 = getelementptr inbounds i8, ptr %2, i64 256
  %14 = load i16, ptr %13, align 4
  %15 = and i16 %14, %12
  %.not.i = icmp ne i16 %15, 0
  %16 = getelementptr inbounds i8, ptr %2, i64 258
  %17 = load i16, ptr %16, align 2
  %18 = and i16 %17, %12
  %19 = icmp eq i16 %18, 0
  %20 = select i1 %.not.i, i1 %19, i1 false
  br label %21

21:                                               ; preds = %9, %3
  %.0 = phi i1 [ false, %3 ], [ %20, %9 ]
  ret i1 %.0
}